; Function Attrs: nounwind sspstrong uwtable
define dso_local void @rb_freeze_singleton_class(i64 noundef %0) local_unnamed_addr #0 {
  %2 = icmp eq i64 %0, 0
  %3 = and i64 %0, 7
  %4 = icmp ne i64 %3, 0
  %5 = or i1 %2, %4
  %.pre = inttoptr i64 %0 to ptr
  br i1 %5, label %RCLASS_SINGLETON_P.exit.thread, label %rbimpl_RB_TYPE_P_fastpath.exit.i

rbimpl_RB_TYPE_P_fastpath.exit.i:                 ; preds = %1
  %6 = load i64, ptr %.pre, align 8, !tbaa !35
  %7 = and i64 %6, 8223
  %or.cond = icmp eq i64 %7, 8194
  br i1 %or.cond, label %RB_FL_TEST.exit.thread, label %RCLASS_SINGLETON_P.exit.thread

RCLASS_SINGLETON_P.exit.thread:                   ; preds = %1, %rbimpl_RB_TYPE_P_fastpath.exit.i
  %8 = getelementptr inbounds nuw i8, ptr %.pre, i64 8
  %9 = load i64, ptr %8, align 8, !tbaa !42
  %.not = icmp eq i64 %9, 0
  %10 = and i64 %9, 7
  %11 = icmp ne i64 %10, 0
  %or.cond8 = or i1 %.not, %11
  br i1 %or.cond8, label %RB_FL_TEST.exit.thread, label %RB_FL_ABLE.exit.i

RB_FL_ABLE.exit.i:                                ; preds = %RCLASS_SINGLETON_P.exit.thread
  %12 = inttoptr i64 %9 to ptr
  %13 = load i64, ptr %12, align 8, !tbaa !35
  %14 = and i64 %13, 31
  %.not.i = icmp ne i64 %14, 27
  %15 = and i64 %13, 10240
  %16 = icmp eq i64 %15, 8192
  %or.cond9 = and i1 %.not.i, %16
  br i1 %or.cond9, label %17, label %RB_FL_TEST.exit.thread

17:                                               ; preds = %RB_FL_ABLE.exit.i
  tail call void @rb_obj_freeze_inline(i64 noundef %9) #19
  br label %RB_FL_TEST.exit.thread

RB_FL_TEST.exit.thread:                           ; preds = %rbimpl_RB_TYPE_P_fastpath.exit.i, %RB_FL_ABLE.exit.i, %RCLASS_SINGLETON_P.exit.thread, %17
  ret void
}